target datalayout = "e-m:e-p270:32:32-p271:32:32-p272:64:64-i64:64-i128:128-f80:128-n8:16:32:64-S128"
target triple = "x86_64-pc-linux-gnu"

; Function Attrs: mustprogress uwtable
define i32 @proj_errno_set(ptr noundef %0, i32 noundef %1) #1 {
  %3 = alloca i32, align 4
  %4 = alloca ptr, align 8
  %5 = alloca i32, align 4
  store ptr %0, ptr %4, align 8
  store i32 %1, ptr %5, align 4
  %6 = load i32, ptr %5, align 4
  %7 = icmp eq i32 0, %6
  br i1 %7, label %8, label %9

8:                                                ; preds = %2
  store i32 0, ptr %3, align 4
  br label %16

9:                                                ; preds = %2
  %10 = load ptr, ptr %4, align 8
  %11 = call noundef ptr @_Z10pj_get_ctxP8PJconsts(ptr noundef %10)
  %12 = load i32, ptr %5, align 4
  call void @_Z22proj_context_errno_setP6pj_ctxi(ptr noundef %11, i32 noundef %12)
  %13 = load i32, ptr %5, align 4
  %14 = call ptr @__errno_location() #20
  store i32 %13, ptr %14, align 4
  %15 = load i32, ptr %5, align 4
  store i32 %15, ptr %3, align 4
  br label %16

16:                                               ; preds = %9, %8
  %17 = load i32, ptr %3, align 4
  ret i32 %17
}