; Function Attrs: mustprogress uwtable
define noundef i32 @proj_errno_set(ptr noundef %0, i32 noundef returned %1) local_unnamed_addr #1 {
  %3 = icmp eq i32 %1, 0
  br i1 %3, label %7, label %4

4:                                                ; preds = %2
  %5 = tail call noundef ptr @_Z10pj_get_ctxP8PJconsts(ptr noundef %0)
  tail call void @_Z22proj_context_errno_setP6pj_ctxi(ptr noundef %5, i32 noundef %1)
  %6 = tail call ptr @__errno_location() #34
  store i32 %1, ptr %6, align 4
  br label %7

7:                                                ; preds = %2, %4
  ret i32 %1
}